target datalayout = "e-m:e-p270:32:32-p271:32:32-p272:64:64-i64:64-i128:128-f80:128-n8:16:32:64-S128"
target triple = "x86_64-pc-linux-gnu"

%struct.Curl_ssl = type { %struct.curl_ssl_backend, i32, i64, ptr, ptr, ptr, ptr, ptr, ptr, ptr, ptr, ptr, ptr, ptr, ptr, ptr, ptr, ptr, ptr, ptr, ptr, ptr, ptr, ptr, ptr, ptr, ptr, ptr }
%struct.curl_ssl_backend = type { i32, ptr }

@Curl_ssl = dso_local global ptr @Curl_ssl_openssl, align 8
@available_backends = internal global [2 x ptr] [ptr @Curl_ssl_openssl, ptr null], align 16
@multissl_version.selected = internal global ptr null, align 8
@multissl_version.backends = internal global [200 x i8] zeroinitializer, align 16
@multissl_version.backends_len = internal global i64 0, align 8
@.str.16 = private unnamed_addr constant [9 x i8] c"%s%s%s%s\00", align 1
@.str.17 = private unnamed_addr constant [2 x i8] c" \00", align 1
@.str.18 = private unnamed_addr constant [1 x i8] zeroinitializer, align 1
@.str.19 = private unnamed_addr constant [2 x i8] c"(\00", align 1
@.str.20 = private unnamed_addr constant [2 x i8] c")\00", align 1

; Function Attrs: nounwind uwtable
define internal i64 @multissl_version(ptr noundef %0, i64 noundef %1) #0 {
  %3 = alloca ptr, align 8
  %4 = alloca i64, align 8
  %5 = alloca ptr, align 8
  %6 = alloca ptr, align 8
  %7 = alloca ptr, align 8
  %8 = alloca i32, align 4
  %9 = alloca [200 x i8], align 16
  %10 = alloca i8, align 1
  store ptr %0, ptr %3, align 8
  store i64 %1, ptr %4, align 8
  %11 = load ptr, ptr @Curl_ssl, align 8
  %12 = icmp eq ptr %11, @Curl_ssl_multi
  br i1 %12, label %13, label %15

13:                                               ; preds = %2
  %14 = load ptr, ptr @available_backends, align 16
  br label %17

15:                                               ; preds = %2
  %16 = load ptr, ptr @Curl_ssl, align 8
  br label %17

17:                                               ; preds = %15, %13
  %18 = phi ptr [ %14, %13 ], [ %16, %15 ]
  store ptr %18, ptr %5, align 8
  %19 = load ptr, ptr %5, align 8
  %20 = load ptr, ptr @multissl_version.selected, align 8
  %21 = icmp ne ptr %19, %20
  br i1 %21, label %22, label %78

22:                                               ; preds = %17
  store ptr @multissl_version.backends, ptr %6, align 8
  %23 = getelementptr inbounds i8, ptr @multissl_version.backends, i64 200
  store ptr %23, ptr %7, align 8
  %24 = load ptr, ptr %5, align 8
  store ptr %24, ptr @multissl_version.selected, align 8
  store i8 0, ptr @multissl_version.backends, align 16
  store i32 0, ptr %8, align 4
  br label %25

25:                                               ; preds = %70, %22
  %26 = load i32, ptr %8, align 4
  %27 = sext i32 %26 to i64
  %28 = getelementptr inbounds [2 x ptr], ptr @available_backends, i64 0, i64 %27
  %29 = load ptr, ptr %28, align 8
  %30 = icmp ne ptr %29, null
  br i1 %30, label %31, label %73

31:                                               ; preds = %25
  %32 = load ptr, ptr @multissl_version.selected, align 8
  %33 = load i32, ptr %8, align 4
  %34 = sext i32 %33 to i64
  %35 = getelementptr inbounds [2 x ptr], ptr @available_backends, i64 0, i64 %34
  %36 = load ptr, ptr %35, align 8
  %37 = icmp ne ptr %32, %36
  %38 = zext i1 %37 to i8
  store i8 %38, ptr %10, align 1
  %39 = load i32, ptr %8, align 4
  %40 = sext i32 %39 to i64
  %41 = getelementptr inbounds [2 x ptr], ptr @available_backends, i64 0, i64 %40
  %42 = load ptr, ptr %41, align 8
  %43 = getelementptr inbounds %struct.Curl_ssl, ptr %42, i32 0, i32 5
  %44 = load ptr, ptr %43, align 8
  %45 = getelementptr inbounds [200 x i8], ptr %9, i64 0, i64 0
  %46 = call i64 %44(ptr noundef %45, i64 noundef 200)
  %47 = icmp ne i64 %46, 0
  br i1 %47, label %48, label %69

48:                                               ; preds = %31
  %49 = load ptr, ptr %6, align 8
  %50 = load ptr, ptr %7, align 8
  %51 = load ptr, ptr %6, align 8
  %52 = ptrtoint ptr %50 to i64
  %53 = ptrtoint ptr %51 to i64
  %54 = sub i64 %52, %53
  %55 = load ptr, ptr %6, align 8
  %56 = icmp ne ptr %55, @multissl_version.backends
  %57 = select i1 %56, ptr @.str.17, ptr @.str.18
  %58 = load i8, ptr %10, align 1
  %59 = trunc i8 %58 to i1
  %60 = select i1 %59, ptr @.str.19, ptr @.str.18
  %61 = getelementptr inbounds [200 x i8], ptr %9, i64 0, i64 0
  %62 = load i8, ptr %10, align 1
  %63 = trunc i8 %62 to i1
  %64 = select i1 %63, ptr @.str.20, ptr @.str.18
  %65 = call i32 (ptr, i64, ptr, ...) @curl_msnprintf(ptr noundef %49, i64 noundef %54, ptr noundef @.str.16, ptr noundef %57, ptr noundef %60, ptr noundef %61, ptr noundef %64)
  %66 = load ptr, ptr %6, align 8
  %67 = sext i32 %65 to i64
  %68 = getelementptr inbounds i8, ptr %66, i64 %67
  store ptr %68, ptr %6, align 8
  br label %69

69:                                               ; preds = %48, %31
  br label %70

70:                                               ; preds = %69
  %71 = load i32, ptr %8, align 4
  %72 = add nsw i32 %71, 1
  store i32 %72, ptr %8, align 4
  br label %25, !llvm.loop !20

73:                                               ; preds = %25
  %74 = load ptr, ptr %6, align 8
  %75 = ptrtoint ptr %74 to i64
  %76 = ptrtoint ptr @multissl_version.backends to i64
  %77 = sub i64 %75, %76
  store i64 %77, ptr @multissl_version.backends_len, align 8
  br label %78

78:                                               ; preds = %73, %17
  %79 = load i64, ptr %4, align 8
  %80 = icmp ne i64 %79, 0
  br i1 %80, label %81, label %91

81:                                               ; preds = %78
  %82 = load i64, ptr @multissl_version.backends_len, align 8
  %83 = load i64, ptr %4, align 8
  %84 = icmp ult i64 %82, %83
  br i1 %84, label %85, label %88

85:                                               ; preds = %81
  %86 = load ptr, ptr %3, align 8
  %87 = call ptr @strcpy(ptr noundef %86, ptr noundef @multissl_version.backends) #7
  br label %90

88:                                               ; preds = %81
  %89 = load ptr, ptr %3, align 8
  store i8 0, ptr %89, align 1
  br label %90

90:                                               ; preds = %88, %85
  br label %91

91:                                               ; preds = %90, %78
  ret i64 0
}