; Function Attrs: nounwind uwtable
define internal noundef i64 @multissl_version(ptr noundef %0, i64 noundef %1) #2 {
  %3 = alloca [200 x i8], align 16
  %4 = load ptr, ptr @Curl_ssl, align 8
  %5 = icmp eq ptr %4, @Curl_ssl_multi
  %6 = load ptr, ptr @available_backends, align 16
  %7 = select i1 %5, ptr %6, ptr %4
  %8 = load ptr, ptr @multissl_version.selected, align 8
  %.not = icmp eq ptr %7, %8
  br i1 %.not, label %29, label %9

9:                                                ; preds = %2
  store ptr %7, ptr @multissl_version.selected, align 8
  store i8 0, ptr @multissl_version.backends, align 16
  %.not2126 = icmp eq ptr %6, null
  br i1 %.not2126, label %._crit_edge, label %.lr.ph

.lr.ph:                                           ; preds = %9, %24
  %indvars.iv = phi i64 [ %indvars.iv.next, %24 ], [ 0, %9 ]
  %10 = phi ptr [ %26, %24 ], [ %6, %9 ]
  %.028 = phi ptr [ %.1, %24 ], [ @multissl_version.backends, %9 ]
  %11 = load ptr, ptr @multissl_version.selected, align 8
  %12 = getelementptr inbounds nuw i8, ptr %10, i64 48
  %13 = load ptr, ptr %12, align 8
  %14 = call i64 %13(ptr noundef nonnull %3, i64 noundef 200) #18
  %.not24 = icmp eq i64 %14, 0
  br i1 %.not24, label %24, label %15

15:                                               ; preds = %.lr.ph
  %.not23 = icmp eq ptr %11, %10
  %16 = ptrtoint ptr %.028 to i64
  %17 = sub i64 ptrtoint (ptr getelementptr inbounds nuw (i8, ptr @multissl_version.backends, i64 200) to i64), %16
  %.not25 = icmp eq ptr %.028, @multissl_version.backends
  %18 = select i1 %.not25, ptr @.str.18, ptr @.str.17
  %19 = select i1 %.not23, ptr @.str.18, ptr @.str.19
  %20 = select i1 %.not23, ptr @.str.18, ptr @.str.20
  %21 = call i32 (ptr, i64, ptr, ...) @curl_msnprintf(ptr noundef %.028, i64 noundef %17, ptr noundef nonnull @.str.16, ptr noundef nonnull %18, ptr noundef nonnull %19, ptr noundef nonnull %3, ptr noundef nonnull %20) #18
  %22 = sext i32 %21 to i64
  %23 = getelementptr inbounds i8, ptr %.028, i64 %22
  br label %24

24:                                               ; preds = %.lr.ph, %15
  %.1 = phi ptr [ %23, %15 ], [ %.028, %.lr.ph ]
  %indvars.iv.next = add nuw nsw i64 %indvars.iv, 1
  %25 = getelementptr inbounds nuw [2 x ptr], ptr @available_backends, i64 0, i64 %indvars.iv.next
  %26 = load ptr, ptr %25, align 8
  %.not21 = icmp eq ptr %26, null
  br i1 %.not21, label %._crit_edge, label %.lr.ph, !llvm.loop !19

._crit_edge:                                      ; preds = %24, %9
  %.0.lcssa = phi ptr [ @multissl_version.backends, %9 ], [ %.1, %24 ]
  %27 = ptrtoint ptr %.0.lcssa to i64
  %28 = sub i64 %27, ptrtoint (ptr @multissl_version.backends to i64)
  store i64 %28, ptr @multissl_version.backends_len, align 8
  br label %29

29:                                               ; preds = %._crit_edge, %2
  %.not22 = icmp eq i64 %1, 0
  br i1 %.not22, label %36, label %30

30:                                               ; preds = %29
  %31 = load i64, ptr @multissl_version.backends_len, align 8
  %32 = icmp ult i64 %31, %1
  br i1 %32, label %33, label %35

33:                                               ; preds = %30
  %34 = call ptr @strcpy(ptr noundef nonnull dereferenceable(1) %0, ptr noundef nonnull dereferenceable(1) @multissl_version.backends) #18
  br label %36

35:                                               ; preds = %30
  store i8 0, ptr %0, align 1
  br label %36

36:                                               ; preds = %33, %35, %29
  ret i64 0
}